target datalayout = "e-m:e-p270:32:32-p271:32:32-p272:64:64-i64:64-i128:128-f80:128-n8:16:32:64-S128"
target triple = "x86_64-pc-linux-gnu"

%struct.IspellDict = type { i32, i32, ptr, ptr, ptr, ptr, ptr, i32, i32, i8, ptr, i8, i32, ptr, i32, i32, ptr, ptr, i32, i32, ptr, i64 }
%struct.CompoundAffixFlag = type { %union.anon.1, i32, i32 }
%union.anon.1 = type { ptr }

@.str.2 = private unnamed_addr constant [8 x i8] c"spell.c\00", align 1
@.str.16 = private unnamed_addr constant [24 x i8] c"invalid affix flag \22%s\22\00", align 1
@__func__.setCompoundAffixFlagValue = private unnamed_addr constant [26 x i8] c"setCompoundAffixFlagValue\00", align 1
@.str.17 = private unnamed_addr constant [32 x i8] c"affix flag \22%s\22 is out of range\00", align 1

; Function Attrs: nounwind uwtable
define internal ptr @compact_palloc0(ptr noundef %0, i64 noundef %1) #0 {
  %3 = alloca ptr, align 8
  %4 = alloca ptr, align 8
  %5 = alloca i64, align 8
  %6 = alloca ptr, align 8
  %7 = alloca i32, align 4
  store ptr %0, ptr %4, align 8
  store i64 %1, ptr %5, align 8
  call void @llvm.lifetime.start.p0(i64 8, ptr %6) #11
  %8 = load i64, ptr %5, align 8
  %9 = icmp ugt i64 %8, 1024
  br i1 %9, label %10, label %13

10:                                               ; preds = %2
  %11 = load i64, ptr %5, align 8
  %12 = call ptr @palloc0(i64 noundef %11)
  store ptr %12, ptr %3, align 8
  store i32 1, ptr %7, align 4
  br label %43

13:                                               ; preds = %2
  %14 = load i64, ptr %5, align 8
  %15 = add i64 %14, 7
  %16 = and i64 %15, -8
  store i64 %16, ptr %5, align 8
  %17 = load i64, ptr %5, align 8
  %18 = load ptr, ptr %4, align 8
  %19 = getelementptr inbounds nuw %struct.IspellDict, ptr %18, i32 0, i32 21
  %20 = load i64, ptr %19, align 8
  %21 = icmp ugt i64 %17, %20
  br i1 %21, label %22, label %28

22:                                               ; preds = %13
  %23 = call ptr @palloc0(i64 noundef 8192)
  %24 = load ptr, ptr %4, align 8
  %25 = getelementptr inbounds nuw %struct.IspellDict, ptr %24, i32 0, i32 20
  store ptr %23, ptr %25, align 8
  %26 = load ptr, ptr %4, align 8
  %27 = getelementptr inbounds nuw %struct.IspellDict, ptr %26, i32 0, i32 21
  store i64 8192, ptr %27, align 8
  br label %28

28:                                               ; preds = %22, %13
  %29 = load ptr, ptr %4, align 8
  %30 = getelementptr inbounds nuw %struct.IspellDict, ptr %29, i32 0, i32 20
  %31 = load ptr, ptr %30, align 8
  store ptr %31, ptr %6, align 8
  %32 = load i64, ptr %5, align 8
  %33 = load ptr, ptr %4, align 8
  %34 = getelementptr inbounds nuw %struct.IspellDict, ptr %33, i32 0, i32 20
  %35 = load ptr, ptr %34, align 8
  %36 = getelementptr inbounds nuw i8, ptr %35, i64 %32
  store ptr %36, ptr %34, align 8
  %37 = load i64, ptr %5, align 8
  %38 = load ptr, ptr %4, align 8
  %39 = getelementptr inbounds nuw %struct.IspellDict, ptr %38, i32 0, i32 21
  %40 = load i64, ptr %39, align 8
  %41 = sub i64 %40, %37
  store i64 %41, ptr %39, align 8
  %42 = load ptr, ptr %6, align 8
  store ptr %42, ptr %3, align 8
  store i32 1, ptr %7, align 4
  br label %43

43:                                               ; preds = %28, %10
  call void @llvm.lifetime.end.p0(i64 8, ptr %6) #11
  %44 = load ptr, ptr %3, align 8
  ret ptr %44
}

; Function Attrs: nounwind uwtable
define internal ptr @cpstrdup(ptr noundef %0, ptr noundef %1) #0 {
  %3 = alloca ptr, align 8
  %4 = alloca ptr, align 8
  %5 = alloca ptr, align 8
  store ptr %0, ptr %3, align 8
  store ptr %1, ptr %4, align 8
  call void @llvm.lifetime.start.p0(i64 8, ptr %5) #11
  %6 = load ptr, ptr %3, align 8
  %7 = load ptr, ptr %4, align 8
  %8 = call i64 @strlen(ptr noundef %7) #14
  %9 = add i64 %8, 1
  %10 = call ptr @compact_palloc0(ptr noundef %6, i64 noundef %9)
  store ptr %10, ptr %5, align 8
  %11 = load ptr, ptr %5, align 8
  %12 = load ptr, ptr %4, align 8
  %13 = call ptr @strcpy(ptr noundef %11, ptr noundef %12) #11
  %14 = load ptr, ptr %5, align 8
  call void @llvm.lifetime.end.p0(i64 8, ptr %5) #11
  ret ptr %14
}

; Function Attrs: nounwind uwtable
define internal void @setCompoundAffixFlagValue(ptr noundef %0, ptr noundef %1, ptr noundef %2, i32 noundef %3) #0 {
  %5 = alloca ptr, align 8
  %6 = alloca ptr, align 8
  %7 = alloca ptr, align 8
  %8 = alloca i32, align 4
  %9 = alloca ptr, align 8
  %10 = alloca i32, align 4
  store ptr %0, ptr %5, align 8
  store ptr %1, ptr %6, align 8
  store ptr %2, ptr %7, align 8
  store i32 %3, ptr %8, align 4
  %11 = load ptr, ptr %5, align 8
  %12 = getelementptr inbounds nuw %struct.IspellDict, ptr %11, i32 0, i32 12
  %13 = load i32, ptr %12, align 4
  %14 = icmp eq i32 %13, 2
  br i1 %14, label %15, label %62

15:                                               ; preds = %4
  call void @llvm.lifetime.start.p0(i64 8, ptr %9) #11
  call void @llvm.lifetime.start.p0(i64 4, ptr %10) #11
  %16 = load ptr, ptr %7, align 8
  %17 = call i64 @strtol(ptr noundef %16, ptr noundef %9, i32 noundef 10) #11
  %18 = trunc i64 %17 to i32
  store i32 %18, ptr %10, align 4
  %19 = load ptr, ptr %7, align 8
  %20 = load ptr, ptr %9, align 8
  %21 = icmp eq ptr %19, %20
  br i1 %21, label %26, label %22

22:                                               ; preds = %15
  %23 = call ptr @__errno_location() #13
  %24 = load i32, ptr %23, align 4
  %25 = icmp eq i32 %24, 34
  br i1 %25, label %26, label %39

26:                                               ; preds = %22, %15
  br label %27

27:                                               ; preds = %26
  br i1 true, label %28, label %30

28:                                               ; preds = %27
  %29 = call zeroext i1 @errstart_cold(i32 noundef 21, ptr noundef null) #12
  br i1 %29, label %32, label %36

30:                                               ; preds = %27
  %31 = call zeroext i1 @errstart(i32 noundef 21, ptr noundef null)
  br i1 %31, label %32, label %36

32:                                               ; preds = %30, %28
  %33 = call i32 @errcode(i32 noundef 22)
  %34 = load ptr, ptr %7, align 8
  %35 = call i32 (ptr, ...) @errmsg(ptr noundef @.str.16, ptr noundef %34)
  call void @errfinish(ptr noundef @.str.2, i32 noundef 1044, ptr noundef @__func__.setCompoundAffixFlagValue)
  br label %36

36:                                               ; preds = %32, %30, %28
  unreachable

37:                                               ; No predecessors!
  br label %38

38:                                               ; preds = %37
  br label %39

39:                                               ; preds = %38, %22
  %40 = load i32, ptr %10, align 4
  %41 = icmp slt i32 %40, 0
  br i1 %41, label %45, label %42

42:                                               ; preds = %39
  %43 = load i32, ptr %10, align 4
  %44 = icmp sgt i32 %43, 65536
  br i1 %44, label %45, label %58

45:                                               ; preds = %42, %39
  br label %46

46:                                               ; preds = %45
  br i1 true, label %47, label %49

47:                                               ; preds = %46
  %48 = call zeroext i1 @errstart_cold(i32 noundef 21, ptr noundef null) #12
  br i1 %48, label %51, label %55

49:                                               ; preds = %46
  %50 = call zeroext i1 @errstart(i32 noundef 21, ptr noundef null)
  br i1 %50, label %51, label %55

51:                                               ; preds = %49, %47
  %52 = call i32 @errcode(i32 noundef 22)
  %53 = load ptr, ptr %7, align 8
  %54 = call i32 (ptr, ...) @errmsg(ptr noundef @.str.17, ptr noundef %53)
  call void @errfinish(ptr noundef @.str.2, i32 noundef 1048, ptr noundef @__func__.setCompoundAffixFlagValue)
  br label %55

55:                                               ; preds = %51, %49, %47
  unreachable

56:                                               ; No predecessors!
  br label %57

57:                                               ; preds = %56
  br label %58

58:                                               ; preds = %57, %42
  %59 = load i32, ptr %10, align 4
  %60 = load ptr, ptr %6, align 8
  %61 = getelementptr inbounds nuw %struct.CompoundAffixFlag, ptr %60, i32 0, i32 0
  store i32 %59, ptr %61, align 8
  call void @llvm.lifetime.end.p0(i64 4, ptr %10) #11
  call void @llvm.lifetime.end.p0(i64 8, ptr %9) #11
  br label %68

62:                                               ; preds = %4
  %63 = load ptr, ptr %5, align 8
  %64 = load ptr, ptr %7, align 8
  %65 = call ptr @cpstrdup(ptr noundef %63, ptr noundef %64)
  %66 = load ptr, ptr %6, align 8
  %67 = getelementptr inbounds nuw %struct.CompoundAffixFlag, ptr %66, i32 0, i32 0
  store ptr %65, ptr %67, align 8
  br label %68

68:                                               ; preds = %62, %58
  %69 = load ptr, ptr %5, align 8
  %70 = getelementptr inbounds nuw %struct.IspellDict, ptr %69, i32 0, i32 12
  %71 = load i32, ptr %70, align 4
  %72 = load ptr, ptr %6, align 8
  %73 = getelementptr inbounds nuw %struct.CompoundAffixFlag, ptr %72, i32 0, i32 1
  store i32 %71, ptr %73, align 8
  %74 = load i32, ptr %8, align 4
  %75 = load ptr, ptr %6, align 8
  %76 = getelementptr inbounds nuw %struct.CompoundAffixFlag, ptr %75, i32 0, i32 2
  store i32 %74, ptr %76, align 4
  ret void
}