; Function Attrs: nounwind uwtable
define internal fastcc void @setCompoundAffixFlagValue(ptr noundef captures(none) %0, ptr noundef writeonly captures(none) %1, ptr noundef nonnull %2, i32 noundef range(i32 0, 33) %3) unnamed_addr #0 {
  %5 = alloca ptr, align 8
  %6 = getelementptr inbounds nuw i8, ptr %0, i64 76
  %7 = load i32, ptr %6, align 4
  %8 = icmp eq i32 %7, 2
  br i1 %8, label %9, label %28

9:                                                ; preds = %4
  call void @llvm.lifetime.start.p0(i64 8, ptr nonnull %5) #14
  %10 = call i64 @strtol(ptr noundef nonnull %2, ptr noundef nonnull %5, i32 noundef 10) #14
  %11 = trunc i64 %10 to i32
  %12 = load ptr, ptr %5, align 8
  %13 = icmp eq ptr %2, %12
  br i1 %13, label %18, label %14

14:                                               ; preds = %9
  %15 = tail call ptr @__errno_location() #16
  %16 = load i32, ptr %15, align 4
  %17 = icmp eq i32 %16, 34
  br i1 %17, label %18, label %22

18:                                               ; preds = %14, %9
  %19 = tail call zeroext i1 @errstart_cold(i32 noundef 21, ptr noundef null) #15
  tail call void @llvm.assume(i1 %19)
  %20 = tail call i32 @errcode(i32 noundef 22) #14
  %21 = tail call i32 (ptr, ...) @errmsg(ptr noundef nonnull @.str.16, ptr noundef nonnull %2) #14
  tail call void @errfinish(ptr noundef nonnull @.str.2, i32 noundef 1044, ptr noundef nonnull @__func__.setCompoundAffixFlagValue) #14
  unreachable

22:                                               ; preds = %14
  %or.cond = icmp ugt i32 %11, 65536
  br i1 %or.cond, label %23, label %27

23:                                               ; preds = %22
  %24 = tail call zeroext i1 @errstart_cold(i32 noundef 21, ptr noundef null) #15
  tail call void @llvm.assume(i1 %24)
  %25 = tail call i32 @errcode(i32 noundef 22) #14
  %26 = tail call i32 (ptr, ...) @errmsg(ptr noundef nonnull @.str.17, ptr noundef nonnull %2) #14
  tail call void @errfinish(ptr noundef nonnull @.str.2, i32 noundef 1048, ptr noundef nonnull @__func__.setCompoundAffixFlagValue) #14
  unreachable

27:                                               ; preds = %22
  store i32 %11, ptr %1, align 8
  call void @llvm.lifetime.end.p0(i64 8, ptr nonnull %5) #14
  br label %49

28:                                               ; preds = %4
  %29 = tail call i64 @strlen(ptr noundef nonnull readonly dereferenceable(1) %2) #17
  %30 = add i64 %29, 1
  %31 = icmp ugt i64 %30, 1024
  br i1 %31, label %32, label %34

32:                                               ; preds = %28
  %33 = tail call ptr @palloc0(i64 noundef %30) #14
  br label %cpstrdup.exit

34:                                               ; preds = %28
  %35 = add nsw i64 %29, 8
  %36 = and i64 %35, 4088
  %37 = getelementptr inbounds nuw i8, ptr %0, i64 128
  %38 = load i64, ptr %37, align 8
  %39 = icmp ugt i64 %36, %38
  br i1 %39, label %40, label %._crit_edge.i.i

._crit_edge.i.i:                                  ; preds = %34
  %.phi.trans.insert.i.i = getelementptr inbounds nuw i8, ptr %0, i64 120
  %.pre.i.i = load ptr, ptr %.phi.trans.insert.i.i, align 8
  br label %42

40:                                               ; preds = %34
  %41 = tail call ptr @palloc0(i64 noundef 8192) #14
  br label %42

42:                                               ; preds = %40, %._crit_edge.i.i
  %43 = phi i64 [ %38, %._crit_edge.i.i ], [ 8192, %40 ]
  %44 = phi ptr [ %.pre.i.i, %._crit_edge.i.i ], [ %41, %40 ]
  %45 = getelementptr inbounds nuw i8, ptr %0, i64 120
  %46 = getelementptr inbounds nuw i8, ptr %44, i64 %36
  store ptr %46, ptr %45, align 8
  %47 = sub i64 %43, %36
  store i64 %47, ptr %37, align 8
  br label %cpstrdup.exit

cpstrdup.exit:                                    ; preds = %32, %42
  %.0.i.i = phi ptr [ %33, %32 ], [ %44, %42 ]
  %48 = tail call ptr @strcpy(ptr noundef nonnull dereferenceable(1) %.0.i.i, ptr noundef nonnull readonly dereferenceable(1) %2) #14
  store ptr %.0.i.i, ptr %1, align 8
  br label %49

49:                                               ; preds = %cpstrdup.exit, %27
  %50 = load i32, ptr %6, align 4
  %51 = getelementptr inbounds nuw i8, ptr %1, i64 8
  store i32 %50, ptr %51, align 8
  %52 = getelementptr inbounds nuw i8, ptr %1, i64 12
  store i32 %3, ptr %52, align 4
  ret void
}